; Function Attrs: mustprogress uwtable
define void @_ZN10open_spiel10algorithms8CCEState13DoApplyActionEl(ptr noundef nonnull align 8 captures(none) dereferenceable(124) %0, i64 noundef %1) unnamed_addr #3 align 2 personality ptr @__gxx_personality_v0 {
  %3 = alloca i32, align 4
  %4 = alloca i64, align 8
  %5 = alloca %"class.std::__cxx11::basic_string", align 8
  %6 = alloca i32, align 4
  %7 = getelementptr inbounds nuw i8, ptr %0, i64 120
  %8 = load i32, ptr %7, align 8
  %9 = icmp slt i32 %8, 0
  br i1 %9, label %10, label %27

10:                                               ; preds = %2
  %11 = trunc i64 %1 to i32
  store i32 %11, ptr %7, align 8
  store i32 %11, ptr %3, align 4
  %12 = getelementptr inbounds nuw i8, ptr %0, i64 112
  %13 = load ptr, ptr %12, align 8
  %14 = getelementptr inbounds nuw i8, ptr %13, i64 8
  %15 = load ptr, ptr %14, align 8
  %16 = load ptr, ptr %13, align 8
  %17 = ptrtoint ptr %15 to i64
  %18 = ptrtoint ptr %16 to i64
  %19 = sub i64 %17, %18
  %20 = sdiv exact i64 %19, 72
  store i64 %20, ptr %4, align 8
  %sext = shl i64 %1, 32
  %21 = ashr exact i64 %sext, 32
  %22 = icmp ugt i64 %20, %21
  br i1 %22, label %38, label %23

23:                                               ; preds = %10
  store i32 80, ptr %6, align 4
  call void @_ZN10open_spiel8internal11SpielStrCatIJRA137_KcRA2_S2_iS6_RA24_S2_RA12_S2_RA4_S2_RiRA16_S2_RmEEENSt7__cxx1112basic_stringIcSt11char_traitsIcESaIcEEEDpOT_(ptr dead_on_unwind nonnull writable sret(%"class.std::__cxx11::basic_string") align 8 %5, ptr noundef nonnull align 1 dereferenceable(137) @.str, ptr noundef nonnull align 1 dereferenceable(2) @.str.1, ptr noundef nonnull align 4 dereferenceable(4) %6, ptr noundef nonnull align 1 dereferenceable(2) @.str.6, ptr noundef nonnull align 1 dereferenceable(24) @.str.7, ptr noundef nonnull align 1 dereferenceable(12) @.str.8, ptr noundef nonnull align 1 dereferenceable(4) @.str.9, ptr noundef nonnull align 4 dereferenceable(4) %3, ptr noundef nonnull align 1 dereferenceable(16) @.str.10, ptr noundef nonnull align 8 dereferenceable(8) %4)
  invoke void @_ZN10open_spiel15SpielFatalErrorERKNSt7__cxx1112basic_stringIcSt11char_traitsIcESaIcEEE(ptr noundef nonnull align 8 dereferenceable(32) %5) #22
          to label %24 unwind label %25

24:                                               ; preds = %23
  unreachable

25:                                               ; preds = %23
  %26 = landingpad { ptr, i32 }
          cleanup
  call void @_ZNSt7__cxx1112basic_stringIcSt11char_traitsIcESaIcEED1Ev(ptr noundef nonnull align 8 dereferenceable(32) %5) #21
  resume { ptr, i32 } %26

27:                                               ; preds = %2
  %28 = getelementptr inbounds nuw i8, ptr %0, i64 64
  %29 = load ptr, ptr %28, align 8
  %30 = load ptr, ptr %29, align 8
  %31 = getelementptr inbounds nuw i8, ptr %30, i64 128
  %32 = load ptr, ptr %31, align 8
  %33 = tail call noundef zeroext i1 %32(ptr noundef nonnull align 8 dereferenceable(60) %29)
  %34 = load ptr, ptr %28, align 8
  %35 = load ptr, ptr %34, align 8
  %36 = getelementptr inbounds nuw i8, ptr %35, i64 24
  %37 = load ptr, ptr %36, align 8
  tail call void %37(ptr noundef nonnull align 8 dereferenceable(60) %34, i64 noundef %1)
  br label %38

38:                                               ; preds = %27, %10
  ret void
}